; Function Attrs: mustprogress nounwind uwtable
define hidden void @_ZN8ciObjectC2EP7oopDesc(ptr nocapture noundef nonnull writeonly align 8 dereferenceable(40) %0, ptr noundef %1) unnamed_addr #0 align 2 {
  %3 = getelementptr inbounds i8, ptr %0, i64 8
  store i32 0, ptr %3, align 8
  store ptr getelementptr inbounds inrange(-16, 136) (i8, ptr @_ZTV8ciObject, i64 16), ptr %0, align 8
  %4 = getelementptr inbounds i8, ptr %0, i64 32
  store ptr null, ptr %4, align 8
  %5 = load volatile i8, ptr @_ZN15ciObjectFactory12_initializedE, align 1
  %6 = trunc i8 %5 to i1
  br i1 %6, label %7, label %9

7:                                                ; preds = %2
  %8 = tail call noundef ptr @_ZN10JNIHandles10make_localEP7oopDesc(ptr noundef %1) #11
  br label %28

9:                                                ; preds = %2
  %10 = icmp eq ptr %1, null
  br i1 %10, label %_ZN6HandleC2EP6ThreadP7oopDesc.exit, label %11

11:                                               ; preds = %9
  %12 = tail call align 8 ptr @llvm.threadlocal.address.p0(ptr align 8 @_ZN6Thread12_thr_currentE)
  %13 = load ptr, ptr %12, align 8
  %14 = getelementptr inbounds i8, ptr %13, i64 808
  %15 = load ptr, ptr %14, align 8
  %16 = getelementptr inbounds i8, ptr %15, i64 40
  %17 = load ptr, ptr %16, align 8
  %18 = getelementptr inbounds i8, ptr %15, i64 32
  %19 = load ptr, ptr %18, align 8
  %20 = ptrtoint ptr %17 to i64
  %21 = ptrtoint ptr %19 to i64
  %22 = sub i64 %20, %21
  %.not.i.i.i.i = icmp ult i64 %22, 8
  br i1 %.not.i.i.i.i, label %25, label %23

23:                                               ; preds = %11
  %24 = getelementptr inbounds i8, ptr %19, i64 8
  store ptr %24, ptr %18, align 8
  br label %_ZN10HandleArea15allocate_handleEP7oopDesc.exit.i

25:                                               ; preds = %11
  %26 = tail call noundef ptr @_ZN5Arena4growEmN17AllocFailStrategy13AllocFailEnumE(ptr noundef nonnull align 8 dereferenceable(48) %15, i64 noundef 8, i32 noundef 0) #11
  br label %_ZN10HandleArea15allocate_handleEP7oopDesc.exit.i

_ZN10HandleArea15allocate_handleEP7oopDesc.exit.i: ; preds = %25, %23
  %.0.i.i.i.i = phi ptr [ %19, %23 ], [ %26, %25 ]
  store ptr %1, ptr %.0.i.i.i.i, align 8
  br label %_ZN6HandleC2EP6ThreadP7oopDesc.exit

_ZN6HandleC2EP6ThreadP7oopDesc.exit:              ; preds = %9, %_ZN10HandleArea15allocate_handleEP7oopDesc.exit.i
  %storemerge.i = phi ptr [ %.0.i.i.i.i, %_ZN10HandleArea15allocate_handleEP7oopDesc.exit.i ], [ null, %9 ]
  %27 = tail call noundef ptr @_ZN10JNIHandles11make_globalE6HandleN17AllocFailStrategy13AllocFailEnumE(ptr %storemerge.i, i32 noundef 0) #11
  br label %28

28:                                               ; preds = %_ZN6HandleC2EP6ThreadP7oopDesc.exit, %7
  %.sink = phi ptr [ %27, %_ZN6HandleC2EP6ThreadP7oopDesc.exit ], [ %8, %7 ]
  %29 = getelementptr inbounds i8, ptr %0, i64 16
  store ptr %.sink, ptr %29, align 8
  %30 = getelementptr inbounds i8, ptr %0, i64 24
  store ptr null, ptr %30, align 8
  ret void
}